; Function Attrs: mustprogress nounwind uwtable
define dso_local void @_ZN3ozz3log6LoggerD2Ev(ptr noundef nonnull readonly align 8 captures(none) dereferenceable(9) %0) unnamed_addr #6 align 2 personality ptr @__gxx_personality_v0 {
  %2 = getelementptr inbounds nuw i8, ptr %0, i64 8
  %3 = load i8, ptr %2, align 8, !tbaa !13, !range !16, !noundef !17
  %4 = trunc nuw i8 %3 to i1
  br i1 %4, label %5, label %_ZN3ozz6DeleteISoEEvPT_.exit

5:                                                ; preds = %1
  %6 = load ptr, ptr %0, align 8, !tbaa !18
  %.not.i = icmp eq ptr %6, null
  br i1 %.not.i, label %_ZN3ozz6DeleteISoEEvPT_.exit, label %7

7:                                                ; preds = %5
  %8 = load ptr, ptr %6, align 8, !tbaa !8
  %9 = load ptr, ptr %8, align 8
  tail call void %9(ptr noundef nonnull align 8 dereferenceable(8) %6) #11
  %10 = invoke noundef ptr @_ZN3ozz6memory17default_allocatorEv()
          to label %.noexc unwind label %14

.noexc:                                           ; preds = %7
  %11 = load ptr, ptr %10, align 8, !tbaa !8
  %12 = getelementptr inbounds nuw i8, ptr %11, i64 24
  %13 = load ptr, ptr %12, align 8
  invoke void %13(ptr noundef nonnull align 8 dereferenceable(8) %10, ptr noundef nonnull %6)
          to label %_ZN3ozz6DeleteISoEEvPT_.exit unwind label %14

_ZN3ozz6DeleteISoEEvPT_.exit:                     ; preds = %5, %.noexc, %1
  ret void

14:                                               ; preds = %.noexc, %7
  %15 = landingpad { ptr, i32 }
          catch ptr null
  %16 = extractvalue { ptr, i32 } %15, 0
  tail call void @__clang_call_terminate(ptr %16) #12
  unreachable
}